target datalayout = "e-m:e-p270:32:32-p271:32:32-p272:64:64-i64:64-i128:128-f80:128-n8:16:32:64-S128"
target triple = "x86_64-pc-linux-gnu"

%struct.strbuf = type { i64, i64, ptr }
%struct.hashmap = type { ptr, ptr, ptr, i32, i32, i32, i32, i8 }
%struct.pattern_entry = type { %struct.hashmap_entry, ptr, i64 }
%struct.hashmap_entry = type { ptr, i32 }
%struct.path_pattern = type { ptr, i32, i32, ptr, i32, i32, i32, [0 x i8] }
%struct.pattern_list = type { i32, i32, ptr, ptr, i32, i32, %struct.hashmap, %struct.hashmap }

@ignore_case = external global i32, align 4
@strbuf_slopbuf = external global [0 x i8], align 1
@__const.path_matches_pattern_list.parent_pathname = private unnamed_addr constant %struct.strbuf { i64 0, i64 0, ptr @strbuf_slopbuf }, align 8
@.str.5 = private unnamed_addr constant [2 x i8] c"-\00", align 1
@.str.31 = private unnamed_addr constant [11 x i8] c"./strbuf.h\00", align 1
@.str.32 = private unnamed_addr constant [30 x i8] c"strbuf_setlen() beyond buffer\00", align 1

; Function Attrs: inlinehint nounwind uwtable
define internal ptr @container_of_or_null_offset(ptr noundef %0, i64 noundef %1) #3 {
  %3 = alloca ptr, align 8
  %4 = alloca i64, align 8
  store ptr %0, ptr %3, align 8, !tbaa !106
  store i64 %1, ptr %4, align 8, !tbaa !19
  %5 = load ptr, ptr %3, align 8, !tbaa !106
  %6 = icmp ne ptr %5, null
  br i1 %6, label %7, label %12

7:                                                ; preds = %2
  %8 = load ptr, ptr %3, align 8, !tbaa !106
  %9 = load i64, ptr %4, align 8, !tbaa !19
  %10 = sub i64 0, %9
  %11 = getelementptr inbounds i8, ptr %8, i64 %10
  br label %13

12:                                               ; preds = %2
  br label %13

13:                                               ; preds = %12, %7
  %14 = phi ptr [ %11, %7 ], [ null, %12 ]
  ret ptr %14
}

; Function Attrs: inlinehint nounwind uwtable
define internal void @hashmap_entry_init(ptr noundef %0, i32 noundef %1) #3 {
  %3 = alloca ptr, align 8
  %4 = alloca i32, align 4
  store ptr %0, ptr %3, align 8, !tbaa !107
  store i32 %1, ptr %4, align 4, !tbaa !16
  %5 = load i32, ptr %4, align 4, !tbaa !16
  %6 = load ptr, ptr %3, align 8, !tbaa !107
  %7 = getelementptr inbounds nuw %struct.hashmap_entry, ptr %6, i32 0, i32 1
  store i32 %5, ptr %7, align 8, !tbaa !280
  %8 = load ptr, ptr %3, align 8, !tbaa !107
  %9 = getelementptr inbounds nuw %struct.hashmap_entry, ptr %8, i32 0, i32 0
  store ptr null, ptr %9, align 8, !tbaa !281
  ret void
}

; Function Attrs: nounwind uwtable
define dso_local i32 @fspathhash(ptr noundef %0) #0 {
  %2 = alloca ptr, align 8
  store ptr %0, ptr %2, align 8, !tbaa !13
  %3 = load i32, ptr @ignore_case, align 4, !tbaa !16
  %4 = icmp ne i32 %3, 0
  br i1 %4, label %5, label %8

5:                                                ; preds = %1
  %6 = load ptr, ptr %2, align 8, !tbaa !13
  %7 = call i32 @strihash(ptr noundef %6)
  br label %11

8:                                                ; preds = %1
  %9 = load ptr, ptr %2, align 8, !tbaa !13
  %10 = call i32 @strhash(ptr noundef %9)
  br label %11

11:                                               ; preds = %8, %5
  %12 = phi i32 [ %7, %5 ], [ %10, %8 ]
  ret i32 %12
}

; Function Attrs: inlinehint nounwind uwtable
define internal i64 @strbuf_avail(ptr noundef %0) #3 {
  %2 = alloca ptr, align 8
  store ptr %0, ptr %2, align 8, !tbaa !117
  %3 = load ptr, ptr %2, align 8, !tbaa !117
  %4 = getelementptr inbounds nuw %struct.strbuf, ptr %3, i32 0, i32 0
  %5 = load i64, ptr %4, align 8, !tbaa !121
  %6 = icmp ne i64 %5, 0
  br i1 %6, label %7, label %16

7:                                                ; preds = %1
  %8 = load ptr, ptr %2, align 8, !tbaa !117
  %9 = getelementptr inbounds nuw %struct.strbuf, ptr %8, i32 0, i32 0
  %10 = load i64, ptr %9, align 8, !tbaa !121
  %11 = load ptr, ptr %2, align 8, !tbaa !117
  %12 = getelementptr inbounds nuw %struct.strbuf, ptr %11, i32 0, i32 1
  %13 = load i64, ptr %12, align 8, !tbaa !122
  %14 = sub i64 %10, %13
  %15 = sub i64 %14, 1
  br label %17

16:                                               ; preds = %1
  br label %17

17:                                               ; preds = %16, %7
  %18 = phi i64 [ %15, %7 ], [ 0, %16 ]
  ret i64 %18
}

; Function Attrs: inlinehint nounwind uwtable
define internal void @strbuf_setlen(ptr noundef %0, i64 noundef %1) #3 {
  %3 = alloca ptr, align 8
  %4 = alloca i64, align 8
  store ptr %0, ptr %3, align 8, !tbaa !117
  store i64 %1, ptr %4, align 8, !tbaa !19
  %5 = load i64, ptr %4, align 8, !tbaa !19
  %6 = load ptr, ptr %3, align 8, !tbaa !117
  %7 = getelementptr inbounds nuw %struct.strbuf, ptr %6, i32 0, i32 0
  %8 = load i64, ptr %7, align 8, !tbaa !121
  %9 = icmp ne i64 %8, 0
  br i1 %9, label %10, label %15

10:                                               ; preds = %2
  %11 = load ptr, ptr %3, align 8, !tbaa !117
  %12 = getelementptr inbounds nuw %struct.strbuf, ptr %11, i32 0, i32 0
  %13 = load i64, ptr %12, align 8, !tbaa !121
  %14 = sub i64 %13, 1
  br label %16

15:                                               ; preds = %2
  br label %16

16:                                               ; preds = %15, %10
  %17 = phi i64 [ %14, %10 ], [ 0, %15 ]
  %18 = icmp ugt i64 %5, %17
  br i1 %18, label %19, label %20

19:                                               ; preds = %16
  call void (ptr, i32, ptr, ...) @BUG_fl(ptr noundef @.str.31, i32 noundef 167, ptr noundef @.str.32) #14
  unreachable

20:                                               ; preds = %16
  %21 = load i64, ptr %4, align 8, !tbaa !19
  %22 = load ptr, ptr %3, align 8, !tbaa !117
  %23 = getelementptr inbounds nuw %struct.strbuf, ptr %22, i32 0, i32 1
  store i64 %21, ptr %23, align 8, !tbaa !122
  %24 = load ptr, ptr %3, align 8, !tbaa !117
  %25 = getelementptr inbounds nuw %struct.strbuf, ptr %24, i32 0, i32 2
  %26 = load ptr, ptr %25, align 8, !tbaa !119
  %27 = icmp ne ptr %26, @strbuf_slopbuf
  br i1 %27, label %28, label %34

28:                                               ; preds = %20
  %29 = load ptr, ptr %3, align 8, !tbaa !117
  %30 = getelementptr inbounds nuw %struct.strbuf, ptr %29, i32 0, i32 2
  %31 = load ptr, ptr %30, align 8, !tbaa !119
  %32 = load i64, ptr %4, align 8, !tbaa !19
  %33 = getelementptr inbounds nuw i8, ptr %31, i64 %32
  store i8 0, ptr %33, align 1, !tbaa !15
  br label %35

34:                                               ; preds = %20
  br label %35

35:                                               ; preds = %34, %28
  ret void
}

; Function Attrs: nounwind uwtable
define internal i32 @hashmap_contains_path(ptr noundef %0, ptr noundef %1) #0 {
  %3 = alloca ptr, align 8
  %4 = alloca ptr, align 8
  %5 = alloca %struct.pattern_entry, align 8
  store ptr %0, ptr %3, align 8, !tbaa !115
  store ptr %1, ptr %4, align 8, !tbaa !117
  call void @llvm.lifetime.start.p0(i64 32, ptr %5) #12
  %6 = load ptr, ptr %4, align 8, !tbaa !117
  %7 = getelementptr inbounds nuw %struct.strbuf, ptr %6, i32 0, i32 2
  %8 = load ptr, ptr %7, align 8, !tbaa !119
  %9 = getelementptr inbounds nuw %struct.pattern_entry, ptr %5, i32 0, i32 1
  store ptr %8, ptr %9, align 8, !tbaa !114
  %10 = load ptr, ptr %4, align 8, !tbaa !117
  %11 = getelementptr inbounds nuw %struct.strbuf, ptr %10, i32 0, i32 1
  %12 = load i64, ptr %11, align 8, !tbaa !122
  %13 = getelementptr inbounds nuw %struct.pattern_entry, ptr %5, i32 0, i32 2
  store i64 %12, ptr %13, align 8, !tbaa !111
  %14 = getelementptr inbounds nuw %struct.pattern_entry, ptr %5, i32 0, i32 0
  %15 = getelementptr inbounds nuw %struct.pattern_entry, ptr %5, i32 0, i32 1
  %16 = load ptr, ptr %15, align 8, !tbaa !114
  %17 = call i32 @fspathhash(ptr noundef %16)
  call void @hashmap_entry_init(ptr noundef %14, i32 noundef %17)
  %18 = load ptr, ptr %3, align 8, !tbaa !115
  %19 = getelementptr inbounds nuw %struct.pattern_entry, ptr %5, i32 0, i32 0
  %20 = call ptr @hashmap_get(ptr noundef %18, ptr noundef %19, ptr noundef null)
  %21 = call ptr @container_of_or_null_offset(ptr noundef %20, i64 noundef 0)
  %22 = icmp ne ptr %21, null
  %23 = xor i1 %22, true
  %24 = xor i1 %23, true
  %25 = zext i1 %24 to i32
  call void @llvm.lifetime.end.p0(i64 32, ptr %5) #12
  ret i32 %25
}

; Function Attrs: inlinehint nounwind uwtable
define internal void @strbuf_addch(ptr noundef %0, i32 noundef %1) #3 {
  %3 = alloca ptr, align 8
  %4 = alloca i32, align 4
  store ptr %0, ptr %3, align 8, !tbaa !117
  store i32 %1, ptr %4, align 4, !tbaa !16
  %5 = load ptr, ptr %3, align 8, !tbaa !117
  %6 = call i64 @strbuf_avail(ptr noundef %5)
  %7 = icmp ne i64 %6, 0
  br i1 %7, label %10, label %8

8:                                                ; preds = %2
  %9 = load ptr, ptr %3, align 8, !tbaa !117
  call void @strbuf_grow(ptr noundef %9, i64 noundef 1)
  br label %10

10:                                               ; preds = %8, %2
  %11 = load i32, ptr %4, align 4, !tbaa !16
  %12 = trunc i32 %11 to i8
  %13 = load ptr, ptr %3, align 8, !tbaa !117
  %14 = getelementptr inbounds nuw %struct.strbuf, ptr %13, i32 0, i32 2
  %15 = load ptr, ptr %14, align 8, !tbaa !119
  %16 = load ptr, ptr %3, align 8, !tbaa !117
  %17 = getelementptr inbounds nuw %struct.strbuf, ptr %16, i32 0, i32 1
  %18 = load i64, ptr %17, align 8, !tbaa !122
  %19 = add i64 %18, 1
  store i64 %19, ptr %17, align 8, !tbaa !122
  %20 = getelementptr inbounds nuw i8, ptr %15, i64 %18
  store i8 %12, ptr %20, align 1, !tbaa !15
  %21 = load ptr, ptr %3, align 8, !tbaa !117
  %22 = getelementptr inbounds nuw %struct.strbuf, ptr %21, i32 0, i32 2
  %23 = load ptr, ptr %22, align 8, !tbaa !119
  %24 = load ptr, ptr %3, align 8, !tbaa !117
  %25 = getelementptr inbounds nuw %struct.strbuf, ptr %24, i32 0, i32 1
  %26 = load i64, ptr %25, align 8, !tbaa !122
  %27 = getelementptr inbounds nuw i8, ptr %23, i64 %26
  store i8 0, ptr %27, align 1, !tbaa !15
  ret void
}

; Function Attrs: nounwind uwtable
define dso_local i32 @path_matches_pattern_list(ptr noundef %0, i32 noundef %1, ptr noundef %2, ptr noundef %3, ptr noundef %4, ptr noundef %5) #0 {
  %7 = alloca i32, align 4
  %8 = alloca ptr, align 8
  %9 = alloca i32, align 4
  %10 = alloca ptr, align 8
  %11 = alloca ptr, align 8
  %12 = alloca ptr, align 8
  %13 = alloca ptr, align 8
  %14 = alloca ptr, align 8
  %15 = alloca %struct.strbuf, align 8
  %16 = alloca i32, align 4
  %17 = alloca i64, align 8
  %18 = alloca i32, align 4
  %19 = alloca ptr, align 8
  store ptr %0, ptr %8, align 8, !tbaa !13
  store i32 %1, ptr %9, align 4, !tbaa !16
  store ptr %2, ptr %10, align 8, !tbaa !13
  store ptr %3, ptr %11, align 8, !tbaa !103
  store ptr %4, ptr %12, align 8, !tbaa !123
  store ptr %5, ptr %13, align 8, !tbaa !41
  call void @llvm.lifetime.start.p0(i64 8, ptr %14) #12
  call void @llvm.lifetime.start.p0(i64 24, ptr %15) #12
  call void @llvm.memcpy.p0.p0.i64(ptr align 8 %15, ptr align 8 @__const.path_matches_pattern_list.parent_pathname, i64 24, i1 false)
  call void @llvm.lifetime.start.p0(i64 4, ptr %16) #12
  store i32 0, ptr %16, align 4, !tbaa !16
  call void @llvm.lifetime.start.p0(i64 8, ptr %17) #12
  %20 = load ptr, ptr %12, align 8, !tbaa !123
  %21 = getelementptr inbounds nuw %struct.pattern_list, ptr %20, i32 0, i32 4
  %22 = load i32, ptr %21, align 8, !tbaa !130
  %23 = icmp ne i32 %22, 0
  br i1 %23, label %43, label %24

24:                                               ; preds = %6
  %25 = load ptr, ptr %8, align 8, !tbaa !13
  %26 = load i32, ptr %9, align 4, !tbaa !16
  %27 = load ptr, ptr %10, align 8, !tbaa !13
  %28 = load ptr, ptr %11, align 8, !tbaa !103
  %29 = load ptr, ptr %12, align 8, !tbaa !123
  %30 = load ptr, ptr %13, align 8, !tbaa !41
  %31 = call ptr @last_matching_pattern_from_list(ptr noundef %25, i32 noundef %26, ptr noundef %27, ptr noundef %28, ptr noundef %29, ptr noundef %30)
  store ptr %31, ptr %14, align 8, !tbaa !124
  %32 = load ptr, ptr %14, align 8, !tbaa !124
  %33 = icmp ne ptr %32, null
  br i1 %33, label %34, label %42

34:                                               ; preds = %24
  %35 = load ptr, ptr %14, align 8, !tbaa !124
  %36 = getelementptr inbounds nuw %struct.path_pattern, ptr %35, i32 0, i32 5
  %37 = load i32, ptr %36, align 4, !tbaa !16
  %38 = and i32 %37, 16
  %39 = icmp ne i32 %38, 0
  br i1 %39, label %40, label %41

40:                                               ; preds = %34
  store i32 0, ptr %7, align 4
  store i32 1, ptr %18, align 4
  br label %113

41:                                               ; preds = %34
  store i32 1, ptr %7, align 4
  store i32 1, ptr %18, align 4
  br label %113

42:                                               ; preds = %24
  store i32 -1, ptr %7, align 4
  store i32 1, ptr %18, align 4
  br label %113

43:                                               ; preds = %6
  %44 = load ptr, ptr %12, align 8, !tbaa !123
  %45 = getelementptr inbounds nuw %struct.pattern_list, ptr %44, i32 0, i32 5
  %46 = load i32, ptr %45, align 4, !tbaa !131
  %47 = icmp ne i32 %46, 0
  br i1 %47, label %48, label %49

48:                                               ; preds = %43
  store i32 1, ptr %7, align 4
  store i32 1, ptr %18, align 4
  br label %113

49:                                               ; preds = %43
  call void @strbuf_addch(ptr noundef %15, i32 noundef 47)
  %50 = load ptr, ptr %8, align 8, !tbaa !13
  %51 = load i32, ptr %9, align 4, !tbaa !16
  %52 = sext i32 %51 to i64
  call void @strbuf_add(ptr noundef %15, ptr noundef %50, i64 noundef %52)
  %53 = getelementptr inbounds nuw %struct.strbuf, ptr %15, i32 0, i32 1
  %54 = load i64, ptr %53, align 8, !tbaa !122
  %55 = icmp ugt i64 %54, 0
  br i1 %55, label %56, label %70

56:                                               ; preds = %49
  %57 = getelementptr inbounds nuw %struct.strbuf, ptr %15, i32 0, i32 2
  %58 = load ptr, ptr %57, align 8, !tbaa !119
  %59 = getelementptr inbounds nuw %struct.strbuf, ptr %15, i32 0, i32 1
  %60 = load i64, ptr %59, align 8, !tbaa !122
  %61 = sub i64 %60, 1
  %62 = getelementptr inbounds nuw i8, ptr %58, i64 %61
  %63 = load i8, ptr %62, align 1, !tbaa !15
  %64 = sext i8 %63 to i32
  %65 = icmp eq i32 %64, 47
  br i1 %65, label %66, label %70

66:                                               ; preds = %56
  %67 = getelementptr inbounds nuw %struct.strbuf, ptr %15, i32 0, i32 1
  %68 = load i64, ptr %67, align 8, !tbaa !122
  %69 = sub i64 %68, 1
  store i64 %69, ptr %17, align 8, !tbaa !19
  call void @strbuf_add(ptr noundef %15, ptr noundef @.str.5, i64 noundef 1)
  br label %86

70:                                               ; preds = %56, %49
  call void @llvm.lifetime.start.p0(i64 8, ptr %19) #12
  %71 = getelementptr inbounds nuw %struct.strbuf, ptr %15, i32 0, i32 2
  %72 = load ptr, ptr %71, align 8, !tbaa !119
  %73 = call ptr @strrchr(ptr noundef %72, i32 noundef 47) #13
  store ptr %73, ptr %19, align 8, !tbaa !13
  %74 = load ptr, ptr %19, align 8, !tbaa !13
  %75 = icmp ne ptr %74, null
  br i1 %75, label %76, label %83

76:                                               ; preds = %70
  %77 = load ptr, ptr %19, align 8, !tbaa !13
  %78 = getelementptr inbounds nuw %struct.strbuf, ptr %15, i32 0, i32 2
  %79 = load ptr, ptr %78, align 8, !tbaa !119
  %80 = ptrtoint ptr %77 to i64
  %81 = ptrtoint ptr %79 to i64
  %82 = sub i64 %80, %81
  br label %84

83:                                               ; preds = %70
  br label %84

84:                                               ; preds = %83, %76
  %85 = phi i64 [ %82, %76 ], [ 0, %83 ]
  store i64 %85, ptr %17, align 8, !tbaa !19
  call void @llvm.lifetime.end.p0(i64 8, ptr %19) #12
  br label %86

86:                                               ; preds = %84, %66
  %87 = load ptr, ptr %12, align 8, !tbaa !123
  %88 = getelementptr inbounds nuw %struct.pattern_list, ptr %87, i32 0, i32 6
  %89 = call i32 @hashmap_contains_path(ptr noundef %88, ptr noundef %15)
  %90 = icmp ne i32 %89, 0
  br i1 %90, label %91, label %92

91:                                               ; preds = %86
  store i32 2, ptr %16, align 4, !tbaa !16
  br label %111

92:                                               ; preds = %86
  %93 = load i64, ptr %17, align 8, !tbaa !19
  %94 = icmp ne i64 %93, 0
  br i1 %94, label %96, label %95

95:                                               ; preds = %92
  store i32 1, ptr %16, align 4, !tbaa !16
  br label %111

96:                                               ; preds = %92
  %97 = load i64, ptr %17, align 8, !tbaa !19
  call void @strbuf_setlen(ptr noundef %15, i64 noundef %97)
  %98 = load ptr, ptr %12, align 8, !tbaa !123
  %99 = getelementptr inbounds nuw %struct.pattern_list, ptr %98, i32 0, i32 7
  %100 = call i32 @hashmap_contains_path(ptr noundef %99, ptr noundef %15)
  %101 = icmp ne i32 %100, 0
  br i1 %101, label %102, label %103

102:                                              ; preds = %96
  store i32 1, ptr %16, align 4, !tbaa !16
  br label %111

103:                                              ; preds = %96
  %104 = load ptr, ptr %12, align 8, !tbaa !123
  %105 = getelementptr inbounds nuw %struct.pattern_list, ptr %104, i32 0, i32 6
  %106 = load ptr, ptr %8, align 8, !tbaa !13
  %107 = call i32 @hashmap_contains_parent(ptr noundef %105, ptr noundef %106, ptr noundef %15)
  %108 = icmp ne i32 %107, 0
  br i1 %108, label %109, label %110

109:                                              ; preds = %103
  store i32 2, ptr %16, align 4, !tbaa !16
  br label %110

110:                                              ; preds = %109, %103
  br label %111

111:                                              ; preds = %110, %102, %95, %91
  call void @strbuf_release(ptr noundef %15)
  %112 = load i32, ptr %16, align 4, !tbaa !16
  store i32 %112, ptr %7, align 4
  store i32 1, ptr %18, align 4
  br label %113

113:                                              ; preds = %111, %48, %42, %41, %40
  call void @llvm.lifetime.end.p0(i64 8, ptr %17) #12
  call void @llvm.lifetime.end.p0(i64 4, ptr %16) #12
  call void @llvm.lifetime.end.p0(i64 24, ptr %15) #12
  call void @llvm.lifetime.end.p0(i64 8, ptr %14) #12
  %114 = load i32, ptr %7, align 4
  ret i32 %114
}