; Function Attrs: nounwind uwtable
define dso_local range(i32 -1, 3) i32 @path_matches_pattern_list(ptr noundef %0, i32 noundef %1, ptr noundef %2, ptr noundef captures(none) %3, ptr noundef %4, ptr noundef %5) local_unnamed_addr #0 {
  %7 = alloca %struct.pattern_entry, align 8
  %8 = alloca %struct.pattern_entry, align 8
  %9 = alloca %struct.strbuf, align 8
  call void @llvm.lifetime.start.p0(i64 24, ptr nonnull %9) #27
  call void @llvm.memcpy.p0.p0.i64(ptr noundef nonnull align 8 dereferenceable(24) %9, ptr noundef nonnull align 8 dereferenceable(24) @__const.connect_wt_gitdir_in_nested.sub_gd, i64 24, i1 false)
  %10 = getelementptr inbounds nuw i8, ptr %4, i64 24
  %11 = load i32, ptr %10, align 8, !tbaa !120
  %.not = icmp eq i32 %11, 0
  br i1 %.not, label %12, label %18

12:                                               ; preds = %6
  %13 = tail call fastcc ptr @last_matching_pattern_from_list(ptr noundef %0, i32 noundef %1, ptr noundef %2, ptr noundef %3, ptr noundef nonnull %4, ptr noundef %5)
  %.not25 = icmp eq ptr %13, null
  br i1 %.not25, label %76, label %14

14:                                               ; preds = %12
  %15 = getelementptr inbounds nuw i8, ptr %13, i64 28
  %16 = load i32, ptr %15, align 4, !tbaa !10
  %17 = lshr i32 %16, 4
  %.lobit = and i32 %17, 1
  %. = xor i32 %.lobit, 1
  br label %76

18:                                               ; preds = %6
  %19 = getelementptr inbounds nuw i8, ptr %4, i64 28
  %20 = load i32, ptr %19, align 4, !tbaa !121
  %.not27 = icmp eq i32 %20, 0
  br i1 %.not27, label %strbuf_addch.exit, label %76

strbuf_addch.exit:                                ; preds = %18
  call void @strbuf_grow(ptr noundef nonnull %9, i64 noundef 1) #27
  %.phi.trans.insert = getelementptr inbounds nuw i8, ptr %9, i64 16
  %.pre = load ptr, ptr %.phi.trans.insert, align 8, !tbaa !74
  %.phi.trans.insert.i = getelementptr inbounds nuw i8, ptr %9, i64 8
  %.pre.i = load i64, ptr %.phi.trans.insert.i, align 8, !tbaa !73
  %.pre7.i = add i64 %.pre.i, 1
  %21 = getelementptr inbounds nuw i8, ptr %9, i64 16
  %22 = getelementptr inbounds nuw i8, ptr %9, i64 8
  store i64 %.pre7.i, ptr %22, align 8, !tbaa !73
  %23 = getelementptr inbounds nuw i8, ptr %.pre, i64 %.pre.i
  store i8 47, ptr %23, align 1, !tbaa !4
  %24 = load ptr, ptr %21, align 8, !tbaa !74
  %25 = load i64, ptr %22, align 8, !tbaa !73
  %26 = getelementptr inbounds nuw i8, ptr %24, i64 %25
  store i8 0, ptr %26, align 1, !tbaa !4
  %27 = sext i32 %1 to i64
  call void @strbuf_add(ptr noundef nonnull %9, ptr noundef %0, i64 noundef %27) #27
  %28 = load i64, ptr %22, align 8, !tbaa !73
  %.not28 = icmp eq i64 %28, 0
  %.pre42 = load ptr, ptr %21, align 8, !tbaa !74
  br i1 %.not28, label %35, label %29

29:                                               ; preds = %strbuf_addch.exit
  %30 = add i64 %28, -1
  %31 = getelementptr inbounds nuw i8, ptr %.pre42, i64 %30
  %32 = load i8, ptr %31, align 1, !tbaa !4
  %33 = icmp eq i8 %32, 47
  br i1 %33, label %34, label %35

34:                                               ; preds = %29
  call void @strbuf_add(ptr noundef nonnull %9, ptr noundef nonnull @.str.5, i64 noundef 1) #27
  %.val35.pre = load i64, ptr %22, align 8, !tbaa !73
  %.val36.pre = load ptr, ptr %21, align 8, !tbaa !74
  br label %41

35:                                               ; preds = %29, %strbuf_addch.exit
  %36 = call ptr @strrchr(ptr noundef nonnull dereferenceable(1) %.pre42, i32 noundef 47) #28
  %.not29 = icmp eq ptr %36, null
  %37 = ptrtoint ptr %36 to i64
  %38 = ptrtoint ptr %.pre42 to i64
  %39 = sub i64 %37, %38
  %40 = select i1 %.not29, i64 0, i64 %39
  br label %41

41:                                               ; preds = %35, %34
  %.val36 = phi ptr [ %.val36.pre, %34 ], [ %.pre42, %35 ]
  %.val35 = phi i64 [ %.val35.pre, %34 ], [ %28, %35 ]
  %.021 = phi i64 [ %30, %34 ], [ %40, %35 ]
  %42 = getelementptr inbounds nuw i8, ptr %4, i64 32
  call void @llvm.lifetime.start.p0(i64 32, ptr nonnull %8) #27
  %43 = getelementptr inbounds nuw i8, ptr %8, i64 16
  store ptr %.val36, ptr %43, align 8, !tbaa !108
  %44 = getelementptr inbounds nuw i8, ptr %8, i64 24
  store i64 %.val35, ptr %44, align 8, !tbaa !104
  %45 = load i32, ptr @ignore_case, align 4, !tbaa !10
  %.not.i.i37 = icmp eq i32 %45, 0
  br i1 %.not.i.i37, label %48, label %46

46:                                               ; preds = %41
  %47 = call i32 @strihash(ptr noundef %.val36) #27
  br label %hashmap_contains_path.exit

48:                                               ; preds = %41
  %49 = call i32 @strhash(ptr noundef %.val36) #27
  br label %hashmap_contains_path.exit

hashmap_contains_path.exit:                       ; preds = %46, %48
  %50 = phi i32 [ %47, %46 ], [ %49, %48 ]
  %51 = getelementptr inbounds nuw i8, ptr %8, i64 8
  store i32 %50, ptr %51, align 8, !tbaa !110
  store ptr null, ptr %8, align 8, !tbaa !111
  %52 = call ptr @hashmap_get(ptr noundef nonnull %42, ptr noundef nonnull %8, ptr noundef null) #27
  %.not40 = icmp eq ptr %52, null
  call void @llvm.lifetime.end.p0(i64 32, ptr nonnull %8) #27
  br i1 %.not40, label %53, label %75

53:                                               ; preds = %hashmap_contains_path.exit
  %.not31 = icmp eq i64 %.021, 0
  br i1 %.not31, label %75, label %54

54:                                               ; preds = %53
  %55 = load i64, ptr %9, align 8, !tbaa !109
  %spec.select.i = call i64 @llvm.usub.sat.i64(i64 %55, i64 1)
  %56 = icmp ugt i64 %.021, %spec.select.i
  br i1 %56, label %57, label %58

57:                                               ; preds = %54
  call void (ptr, i32, ptr, ...) @BUG_fl(ptr noundef nonnull @.str.31, i32 noundef 167, ptr noundef nonnull @.str.32) #29
  unreachable

58:                                               ; preds = %54
  store i64 %.021, ptr %22, align 8, !tbaa !73
  %59 = load ptr, ptr %21, align 8, !tbaa !74
  %.not9.i = icmp eq ptr %59, @strbuf_slopbuf
  br i1 %.not9.i, label %strbuf_setlen.exit, label %60

60:                                               ; preds = %58
  %61 = getelementptr inbounds nuw i8, ptr %59, i64 %.021
  store i8 0, ptr %61, align 1, !tbaa !4
  %.val.pre = load i64, ptr %22, align 8, !tbaa !73
  %.val34.pre = load ptr, ptr %21, align 8, !tbaa !74
  br label %strbuf_setlen.exit

strbuf_setlen.exit:                               ; preds = %58, %60
  %.val34 = phi ptr [ @strbuf_slopbuf, %58 ], [ %.val34.pre, %60 ]
  %.val = phi i64 [ %.021, %58 ], [ %.val.pre, %60 ]
  %62 = getelementptr inbounds nuw i8, ptr %4, i64 80
  call void @llvm.lifetime.start.p0(i64 32, ptr nonnull %7) #27
  %63 = getelementptr inbounds nuw i8, ptr %7, i64 16
  store ptr %.val34, ptr %63, align 8, !tbaa !108
  %64 = getelementptr inbounds nuw i8, ptr %7, i64 24
  store i64 %.val, ptr %64, align 8, !tbaa !104
  %65 = load i32, ptr @ignore_case, align 4, !tbaa !10
  %.not.i.i38 = icmp eq i32 %65, 0
  br i1 %.not.i.i38, label %68, label %66

66:                                               ; preds = %strbuf_setlen.exit
  %67 = call i32 @strihash(ptr noundef %.val34) #27
  br label %hashmap_contains_path.exit39

68:                                               ; preds = %strbuf_setlen.exit
  %69 = call i32 @strhash(ptr noundef %.val34) #27
  br label %hashmap_contains_path.exit39

hashmap_contains_path.exit39:                     ; preds = %66, %68
  %70 = phi i32 [ %67, %66 ], [ %69, %68 ]
  %71 = getelementptr inbounds nuw i8, ptr %7, i64 8
  store i32 %70, ptr %71, align 8, !tbaa !110
  store ptr null, ptr %7, align 8, !tbaa !111
  %72 = call ptr @hashmap_get(ptr noundef nonnull %62, ptr noundef nonnull %7, ptr noundef null) #27
  %.not41 = icmp eq ptr %72, null
  call void @llvm.lifetime.end.p0(i64 32, ptr nonnull %7) #27
  br i1 %.not41, label %73, label %75

73:                                               ; preds = %hashmap_contains_path.exit39
  %74 = call i32 @hashmap_contains_parent(ptr noundef nonnull %42, ptr noundef %0, ptr noundef nonnull %9)
  %.not33 = icmp eq i32 %74, 0
  %spec.select = select i1 %.not33, i32 0, i32 2
  br label %75

75:                                               ; preds = %73, %hashmap_contains_path.exit39, %53, %hashmap_contains_path.exit
  %.022 = phi i32 [ 2, %hashmap_contains_path.exit ], [ 1, %53 ], [ 1, %hashmap_contains_path.exit39 ], [ %spec.select, %73 ]
  call void @strbuf_release(ptr noundef nonnull %9) #27
  br label %76

76:                                               ; preds = %18, %12, %14, %75
  %.0 = phi i32 [ %.022, %75 ], [ %., %14 ], [ -1, %12 ], [ 1, %18 ]
  call void @llvm.lifetime.end.p0(i64 24, ptr nonnull %9) #27
  ret i32 %.0
}